target datalayout = "e-m:e-p270:32:32-p271:32:32-p272:64:64-i64:64-i128:128-f80:128-n8:16:32:64-S128"
target triple = "x86_64-pc-linux-gnu"

%struct.expert_field = type { i32, i32 }

@hf_flex_frame_wu_count = internal global i32 0, align 4
@ei_warn_unknown_flex_len = internal global %struct.expert_field zeroinitializer, align 4
@.str.749 = private unnamed_addr constant [29 x i8] c"Write unit illegal length %d\00", align 1

; Function Attrs: null_pointer_is_valid sspstrong uwtable
define internal void @flex_frame_wu_usage_dissect(ptr noundef %0, ptr noundef %1, i32 noundef %2, i32 noundef %3) #0 {
  %5 = alloca ptr, align 8
  %6 = alloca ptr, align 8
  %7 = alloca i32, align 4
  %8 = alloca i32, align 4
  %9 = alloca i16, align 2
  store ptr %0, ptr %5, align 8
  store ptr %1, ptr %6, align 8
  store i32 %2, ptr %7, align 4
  store i32 %3, ptr %8, align 4
  %10 = load i32, ptr %8, align 4
  %11 = icmp ne i32 %10, 2
  br i1 %11, label %12, label %19

12:                                               ; preds = %4
  %13 = load ptr, ptr %6, align 8
  %14 = load ptr, ptr %5, align 8
  %15 = load i32, ptr %7, align 4
  %16 = load i32, ptr %8, align 4
  %17 = load i32, ptr %8, align 4
  %18 = call ptr (ptr, ptr, ptr, ptr, i32, i32, ptr, ...) @proto_tree_add_expert_format(ptr noundef %13, ptr noundef null, ptr noundef @ei_warn_unknown_flex_len, ptr noundef %14, i32 noundef %15, i32 noundef %16, ptr noundef @.str.749, i32 noundef %17)
  br label %30

19:                                               ; preds = %4
  call void @llvm.lifetime.start.p0(i64 2, ptr %9) #7
  %20 = load ptr, ptr %5, align 8
  %21 = load i32, ptr %7, align 4
  %22 = call zeroext i16 @tvb_get_ntohs(ptr noundef %20, i32 noundef %21)
  store i16 %22, ptr %9, align 2
  %23 = load ptr, ptr %6, align 8
  %24 = load i32, ptr @hf_flex_frame_wu_count, align 4
  %25 = load ptr, ptr %5, align 8
  %26 = load i32, ptr %7, align 4
  %27 = load i16, ptr %9, align 2
  %28 = zext i16 %27 to i32
  %29 = call ptr @proto_tree_add_uint(ptr noundef %23, i32 noundef %24, ptr noundef %25, i32 noundef %26, i32 noundef 2, i32 noundef %28)
  call void @llvm.lifetime.end.p0(i64 2, ptr %9) #7
  br label %30

30:                                               ; preds = %19, %12
  ret void
}